; Function Attrs: mustprogress nounwind uwtable
define internal fastcc void @_ZZN9grpc_core12_GLOBAL__N_112StateWatcher10StartTimerENS_9TimestampEENUlvE_D2Ev(ptr %this.0.val) unnamed_addr #10 align 2 personality ptr @__gxx_personality_v0 {
entry:
  %cmp.not.i = icmp eq ptr %this.0.val, null
  br i1 %cmp.not.i, label %_ZN9grpc_core13RefCountedPtrINS_12_GLOBAL__N_112StateWatcherEED2Ev.exit, label %if.then.i

if.then.i:                                        ; preds = %entry
  %refs_.i.i = getelementptr inbounds i8, ptr %this.0.val, i64 8
  %0 = atomicrmw add ptr %refs_.i.i, i64 -4294967295 acq_rel, align 8
  %shr.i.mask.i.i = and i64 %0, -4294967296
  %cmp.i.i = icmp eq i64 %shr.i.mask.i.i, 4294967296
  br i1 %cmp.i.i, label %if.then.i.i, label %if.end.i.i

if.then.i.i:                                      ; preds = %if.then.i
  %vtable.i.i = load ptr, ptr %this.0.val, align 8
  %1 = load ptr, ptr %vtable.i.i, align 8
  invoke void %1(ptr noundef nonnull align 8 dereferenceable(8) %this.0.val)
          to label %if.end.i.i unwind label %terminate.lpad.i

if.end.i.i:                                       ; preds = %if.then.i.i, %if.then.i
  %2 = atomicrmw sub ptr %refs_.i.i, i64 1 acq_rel, align 8
  %cmp.not.i.i.i = icmp eq i64 %2, 1
  br i1 %cmp.not.i.i.i, label %delete.notnull.i.i.i, label %_ZN9grpc_core13RefCountedPtrINS_12_GLOBAL__N_112StateWatcherEED2Ev.exit

delete.notnull.i.i.i:                             ; preds = %if.end.i.i
  %vtable.i.i.i = load ptr, ptr %this.0.val, align 8
  %vfn.i.i.i = getelementptr inbounds i8, ptr %vtable.i.i.i, i64 16
  %3 = load ptr, ptr %vfn.i.i.i, align 8
  tail call void %3(ptr noundef nonnull align 8 dereferenceable(153) %this.0.val) #18
  br label %_ZN9grpc_core13RefCountedPtrINS_12_GLOBAL__N_112StateWatcherEED2Ev.exit

terminate.lpad.i:                                 ; preds = %if.then.i.i
  %4 = landingpad { ptr, i32 }
          catch ptr null
  %5 = extractvalue { ptr, i32 } %4, 0
  tail call void @__clang_call_terminate(ptr %5) #19
  unreachable

_ZN9grpc_core13RefCountedPtrINS_12_GLOBAL__N_112StateWatcherEED2Ev.exit: ; preds = %entry, %if.end.i.i, %delete.notnull.i.i.i
  ret void
}